; Function Attrs: nounwind uwtable
define internal i32 @cvSpilsJacTimesVecBSWrapper(ptr noundef %0, ptr noundef %1, double noundef %2, ptr noundef %3, ptr noundef %4, ptr noundef %5, ptr noundef %6) #0 {
  %8 = getelementptr inbounds nuw i8, ptr %5, i64 2192
  %9 = load ptr, ptr %8, align 8, !tbaa !52
  %10 = getelementptr inbounds nuw i8, ptr %9, i64 48
  %11 = load ptr, ptr %10, align 8, !tbaa !68
  %12 = getelementptr inbounds nuw i8, ptr %11, i64 72
  %13 = load ptr, ptr %12, align 8, !tbaa !64
  %14 = getelementptr inbounds nuw i8, ptr %9, i64 164
  %15 = load i32, ptr %14, align 4, !tbaa !74
  %.not = icmp eq i32 %15, 0
  %16 = getelementptr inbounds nuw i8, ptr %9, i64 144
  %17 = load ptr, ptr %16, align 8, !tbaa !69
  %18 = getelementptr inbounds nuw i8, ptr %9, i64 480
  %19 = load ptr, ptr %18, align 8, !tbaa !70
  br i1 %.not, label %23, label %20

20:                                               ; preds = %7
  %21 = getelementptr inbounds nuw i8, ptr %9, i64 488
  %22 = load ptr, ptr %21, align 8, !tbaa !75
  br label %23

23:                                               ; preds = %7, %20
  %.sink = phi ptr [ %22, %20 ], [ null, %7 ]
  %24 = tail call i32 %17(ptr noundef nonnull %5, double noundef %2, ptr noundef %19, ptr noundef %.sink) #5
  %.not28 = icmp eq i32 %24, 0
  br i1 %.not28, label %26, label %25

25:                                               ; preds = %23
  tail call void (ptr, i32, ptr, ptr, ptr, ...) @cvProcessError(ptr noundef nonnull %5, i32 noundef -1, ptr noundef nonnull @.str, ptr noundef nonnull @.str.47, ptr noundef nonnull @.str.42) #5
  br label %36

26:                                               ; preds = %23
  %27 = getelementptr inbounds nuw i8, ptr %13, i64 8
  %28 = load ptr, ptr %27, align 8, !tbaa !77
  %29 = getelementptr inbounds nuw i8, ptr %9, i64 480
  %30 = load ptr, ptr %29, align 8, !tbaa !70
  %31 = getelementptr inbounds nuw i8, ptr %9, i64 488
  %32 = load ptr, ptr %31, align 8, !tbaa !75
  %33 = getelementptr inbounds nuw i8, ptr %11, i64 64
  %34 = load ptr, ptr %33, align 8, !tbaa !71
  %35 = tail call i32 %28(ptr noundef %0, ptr noundef %1, double noundef %2, ptr noundef %30, ptr noundef %32, ptr noundef %3, ptr noundef %4, ptr noundef %34, ptr noundef %6) #5
  br label %36

36:                                               ; preds = %26, %25
  %.027 = phi i32 [ -1, %25 ], [ %35, %26 ]
  ret i32 %.027
}